target datalayout = "e-m:e-p270:32:32-p271:32:32-p272:64:64-i64:64-i128:128-f80:128-n8:16:32:64-S128"
target triple = "x86_64-unknown-linux-gnu"

%"class.node::url::BindingData" = type { %"class.node::SnapshotableObject.base", %"class.node::AliasedBufferBase" }
%"class.node::SnapshotableObject.base" = type <{ %"class.node::BaseObject", i8 }>
%"class.node::BaseObject" = type { %"class.node::MemoryRetainer", %"class.v8::Global", ptr, ptr }
%"class.node::MemoryRetainer" = type { ptr }
%"class.v8::Global" = type { %"class.v8::PersistentBase" }
%"class.v8::PersistentBase" = type { %"class.v8::IndirectHandleBase" }
%"class.v8::IndirectHandleBase" = type { ptr }
%"class.node::AliasedBufferBase" = type { %"class.node::MemoryRetainer", ptr, i64, i64, ptr, %"class.v8::Global.5", ptr }
%"class.v8::Global.5" = type { %"class.v8::PersistentBase.6" }
%"class.v8::PersistentBase.6" = type { %"class.v8::IndirectHandleBase" }
%"struct.ada::url_components" = type { i32, i32, i32, i32, i32, i32, i32, i32 }
%"class.node::AliasedBufferBase<unsigned int, v8::Uint32Array>::Reference" = type { ptr, i64 }

; Function Attrs: mustprogress nounwind uwtable
define linkonce_odr dso_local void @_ZN4node17AliasedBufferBaseIjN2v811Uint32ArrayEE8SetValueEmj(ptr noundef nonnull align 8 dereferenceable(56) %this, i64 noundef %index, i32 noundef %value) #4 comdat align 2 {
entry:
  %this.addr = alloca ptr, align 8
  %index.addr = alloca i64, align 8
  %value.addr = alloca i32, align 4
  store ptr %this, ptr %this.addr, align 8
  store i64 %index, ptr %index.addr, align 8
  store i32 %value, ptr %value.addr, align 4
  %this1 = load ptr, ptr %this.addr, align 8
  %0 = load i32, ptr %value.addr, align 4
  %buffer_ = getelementptr inbounds %"class.node::AliasedBufferBase", ptr %this1, i32 0, i32 4
  %1 = load ptr, ptr %buffer_, align 8
  %2 = load i64, ptr %index.addr, align 8
  %arrayidx = getelementptr inbounds i32, ptr %1, i64 %2
  store i32 %0, ptr %arrayidx, align 4
  ret void
}

; Function Attrs: mustprogress nounwind uwtable
define linkonce_odr dso_local void @_ZN4node17AliasedBufferBaseIjN2v811Uint32ArrayEE9ReferenceC2EPS3_m(ptr noundef nonnull align 8 dereferenceable(16) %this, ptr noundef %aliased_buffer, i64 noundef %index) unnamed_addr #4 comdat align 2 {
entry:
  %this.addr = alloca ptr, align 8
  %aliased_buffer.addr = alloca ptr, align 8
  %index.addr = alloca i64, align 8
  store ptr %this, ptr %this.addr, align 8
  store ptr %aliased_buffer, ptr %aliased_buffer.addr, align 8
  store i64 %index, ptr %index.addr, align 8
  %this1 = load ptr, ptr %this.addr, align 8
  %aliased_buffer_ = getelementptr inbounds %"class.node::AliasedBufferBase<unsigned int, v8::Uint32Array>::Reference", ptr %this1, i32 0, i32 0
  %0 = load ptr, ptr %aliased_buffer.addr, align 8
  store ptr %0, ptr %aliased_buffer_, align 8
  %index_ = getelementptr inbounds %"class.node::AliasedBufferBase<unsigned int, v8::Uint32Array>::Reference", ptr %this1, i32 0, i32 1
  %1 = load i64, ptr %index.addr, align 8
  store i64 %1, ptr %index_, align 8
  ret void
}

; Function Attrs: mustprogress nounwind uwtable
define linkonce_odr dso_local noundef nonnull align 8 dereferenceable(16) ptr @_ZN4node17AliasedBufferBaseIjN2v811Uint32ArrayEE9ReferenceaSERKj(ptr noundef nonnull align 8 dereferenceable(16) %this, ptr noundef nonnull align 4 dereferenceable(4) %val) #4 comdat align 2 {
entry:
  %this.addr = alloca ptr, align 8
  %val.addr = alloca ptr, align 8
  store ptr %this, ptr %this.addr, align 8
  store ptr %val, ptr %val.addr, align 8
  %this1 = load ptr, ptr %this.addr, align 8
  %aliased_buffer_ = getelementptr inbounds %"class.node::AliasedBufferBase<unsigned int, v8::Uint32Array>::Reference", ptr %this1, i32 0, i32 0
  %0 = load ptr, ptr %aliased_buffer_, align 8
  %index_ = getelementptr inbounds %"class.node::AliasedBufferBase<unsigned int, v8::Uint32Array>::Reference", ptr %this1, i32 0, i32 1
  %1 = load i64, ptr %index_, align 8
  %2 = load ptr, ptr %val.addr, align 8
  %3 = load i32, ptr %2, align 4
  call void @_ZN4node17AliasedBufferBaseIjN2v811Uint32ArrayEE8SetValueEmj(ptr noundef nonnull align 8 dereferenceable(56) %0, i64 noundef %1, i32 noundef %3)
  ret ptr %this1
}

; Function Attrs: mustprogress nounwind uwtable
define linkonce_odr dso_local void @_ZN4node17AliasedBufferBaseIjN2v811Uint32ArrayEEixEm(ptr noalias sret(%"class.node::AliasedBufferBase<unsigned int, v8::Uint32Array>::Reference") align 8 %agg.result, ptr noundef nonnull align 8 dereferenceable(56) %this, i64 noundef %index) #4 comdat align 2 {
entry:
  %result.ptr = alloca ptr, align 8
  %this.addr = alloca ptr, align 8
  %index.addr = alloca i64, align 8
  store ptr %agg.result, ptr %result.ptr, align 8
  store ptr %this, ptr %this.addr, align 8
  store i64 %index, ptr %index.addr, align 8
  %this1 = load ptr, ptr %this.addr, align 8
  %0 = load i64, ptr %index.addr, align 8
  call void @_ZN4node17AliasedBufferBaseIjN2v811Uint32ArrayEE9ReferenceC2EPS3_m(ptr noundef nonnull align 8 dereferenceable(16) %agg.result, ptr noundef %this1, i64 noundef %0)
  ret void
}

; Function Attrs: mustprogress nounwind uwtable
define dso_local void @_ZN4node3url11BindingData16UpdateComponentsERKN3ada14url_componentsENS2_6scheme4typeE(ptr noundef nonnull align 8 dereferenceable(96) %this, ptr noundef nonnull align 4 dereferenceable(32) %components, i8 noundef zeroext %type) #4 align 2 {
entry:
  %this.addr = alloca ptr, align 8
  %components.addr = alloca ptr, align 8
  %type.addr = alloca i8, align 1
  %ref.tmp = alloca %"class.node::AliasedBufferBase<unsigned int, v8::Uint32Array>::Reference", align 8
  %ref.tmp2 = alloca %"class.node::AliasedBufferBase<unsigned int, v8::Uint32Array>::Reference", align 8
  %ref.tmp5 = alloca %"class.node::AliasedBufferBase<unsigned int, v8::Uint32Array>::Reference", align 8
  %ref.tmp8 = alloca %"class.node::AliasedBufferBase<unsigned int, v8::Uint32Array>::Reference", align 8
  %ref.tmp11 = alloca %"class.node::AliasedBufferBase<unsigned int, v8::Uint32Array>::Reference", align 8
  %ref.tmp14 = alloca %"class.node::AliasedBufferBase<unsigned int, v8::Uint32Array>::Reference", align 8
  %ref.tmp17 = alloca %"class.node::AliasedBufferBase<unsigned int, v8::Uint32Array>::Reference", align 8
  %ref.tmp20 = alloca %"class.node::AliasedBufferBase<unsigned int, v8::Uint32Array>::Reference", align 8
  %ref.tmp23 = alloca i32, align 4
  %ref.tmp24 = alloca %"class.node::AliasedBufferBase<unsigned int, v8::Uint32Array>::Reference", align 8
  store ptr %this, ptr %this.addr, align 8
  store ptr %components, ptr %components.addr, align 8
  store i8 %type, ptr %type.addr, align 1
  %this1 = load ptr, ptr %this.addr, align 8
  %0 = load ptr, ptr %components.addr, align 8
  %protocol_end = getelementptr inbounds %"struct.ada::url_components", ptr %0, i32 0, i32 0
  %url_components_buffer_ = getelementptr inbounds %"class.node::url::BindingData", ptr %this1, i32 0, i32 1
  call void @_ZN4node17AliasedBufferBaseIjN2v811Uint32ArrayEEixEm(ptr sret(%"class.node::AliasedBufferBase<unsigned int, v8::Uint32Array>::Reference") align 8 %ref.tmp, ptr noundef nonnull align 8 dereferenceable(56) %url_components_buffer_, i64 noundef 0)
  %call = call noundef nonnull align 8 dereferenceable(16) ptr @_ZN4node17AliasedBufferBaseIjN2v811Uint32ArrayEE9ReferenceaSERKj(ptr noundef nonnull align 8 dereferenceable(16) %ref.tmp, ptr noundef nonnull align 4 dereferenceable(4) %protocol_end)
  %1 = load ptr, ptr %components.addr, align 8
  %username_end = getelementptr inbounds %"struct.ada::url_components", ptr %1, i32 0, i32 1
  %url_components_buffer_3 = getelementptr inbounds %"class.node::url::BindingData", ptr %this1, i32 0, i32 1
  call void @_ZN4node17AliasedBufferBaseIjN2v811Uint32ArrayEEixEm(ptr sret(%"class.node::AliasedBufferBase<unsigned int, v8::Uint32Array>::Reference") align 8 %ref.tmp2, ptr noundef nonnull align 8 dereferenceable(56) %url_components_buffer_3, i64 noundef 1)
  %call4 = call noundef nonnull align 8 dereferenceable(16) ptr @_ZN4node17AliasedBufferBaseIjN2v811Uint32ArrayEE9ReferenceaSERKj(ptr noundef nonnull align 8 dereferenceable(16) %ref.tmp2, ptr noundef nonnull align 4 dereferenceable(4) %username_end)
  %2 = load ptr, ptr %components.addr, align 8
  %host_start = getelementptr inbounds %"struct.ada::url_components", ptr %2, i32 0, i32 2
  %url_components_buffer_6 = getelementptr inbounds %"class.node::url::BindingData", ptr %this1, i32 0, i32 1
  call void @_ZN4node17AliasedBufferBaseIjN2v811Uint32ArrayEEixEm(ptr sret(%"class.node::AliasedBufferBase<unsigned int, v8::Uint32Array>::Reference") align 8 %ref.tmp5, ptr noundef nonnull align 8 dereferenceable(56) %url_components_buffer_6, i64 noundef 2)
  %call7 = call noundef nonnull align 8 dereferenceable(16) ptr @_ZN4node17AliasedBufferBaseIjN2v811Uint32ArrayEE9ReferenceaSERKj(ptr noundef nonnull align 8 dereferenceable(16) %ref.tmp5, ptr noundef nonnull align 4 dereferenceable(4) %host_start)
  %3 = load ptr, ptr %components.addr, align 8
  %host_end = getelementptr inbounds %"struct.ada::url_components", ptr %3, i32 0, i32 3
  %url_components_buffer_9 = getelementptr inbounds %"class.node::url::BindingData", ptr %this1, i32 0, i32 1
  call void @_ZN4node17AliasedBufferBaseIjN2v811Uint32ArrayEEixEm(ptr sret(%"class.node::AliasedBufferBase<unsigned int, v8::Uint32Array>::Reference") align 8 %ref.tmp8, ptr noundef nonnull align 8 dereferenceable(56) %url_components_buffer_9, i64 noundef 3)
  %call10 = call noundef nonnull align 8 dereferenceable(16) ptr @_ZN4node17AliasedBufferBaseIjN2v811Uint32ArrayEE9ReferenceaSERKj(ptr noundef nonnull align 8 dereferenceable(16) %ref.tmp8, ptr noundef nonnull align 4 dereferenceable(4) %host_end)
  %4 = load ptr, ptr %components.addr, align 8
  %port = getelementptr inbounds %"struct.ada::url_components", ptr %4, i32 0, i32 4
  %url_components_buffer_12 = getelementptr inbounds %"class.node::url::BindingData", ptr %this1, i32 0, i32 1
  call void @_ZN4node17AliasedBufferBaseIjN2v811Uint32ArrayEEixEm(ptr sret(%"class.node::AliasedBufferBase<unsigned int, v8::Uint32Array>::Reference") align 8 %ref.tmp11, ptr noundef nonnull align 8 dereferenceable(56) %url_components_buffer_12, i64 noundef 4)
  %call13 = call noundef nonnull align 8 dereferenceable(16) ptr @_ZN4node17AliasedBufferBaseIjN2v811Uint32ArrayEE9ReferenceaSERKj(ptr noundef nonnull align 8 dereferenceable(16) %ref.tmp11, ptr noundef nonnull align 4 dereferenceable(4) %port)
  %5 = load ptr, ptr %components.addr, align 8
  %pathname_start = getelementptr inbounds %"struct.ada::url_components", ptr %5, i32 0, i32 5
  %url_components_buffer_15 = getelementptr inbounds %"class.node::url::BindingData", ptr %this1, i32 0, i32 1
  call void @_ZN4node17AliasedBufferBaseIjN2v811Uint32ArrayEEixEm(ptr sret(%"class.node::AliasedBufferBase<unsigned int, v8::Uint32Array>::Reference") align 8 %ref.tmp14, ptr noundef nonnull align 8 dereferenceable(56) %url_components_buffer_15, i64 noundef 5)
  %call16 = call noundef nonnull align 8 dereferenceable(16) ptr @_ZN4node17AliasedBufferBaseIjN2v811Uint32ArrayEE9ReferenceaSERKj(ptr noundef nonnull align 8 dereferenceable(16) %ref.tmp14, ptr noundef nonnull align 4 dereferenceable(4) %pathname_start)
  %6 = load ptr, ptr %components.addr, align 8
  %search_start = getelementptr inbounds %"struct.ada::url_components", ptr %6, i32 0, i32 6
  %url_components_buffer_18 = getelementptr inbounds %"class.node::url::BindingData", ptr %this1, i32 0, i32 1
  call void @_ZN4node17AliasedBufferBaseIjN2v811Uint32ArrayEEixEm(ptr sret(%"class.node::AliasedBufferBase<unsigned int, v8::Uint32Array>::Reference") align 8 %ref.tmp17, ptr noundef nonnull align 8 dereferenceable(56) %url_components_buffer_18, i64 noundef 6)
  %call19 = call noundef nonnull align 8 dereferenceable(16) ptr @_ZN4node17AliasedBufferBaseIjN2v811Uint32ArrayEE9ReferenceaSERKj(ptr noundef nonnull align 8 dereferenceable(16) %ref.tmp17, ptr noundef nonnull align 4 dereferenceable(4) %search_start)
  %7 = load ptr, ptr %components.addr, align 8
  %hash_start = getelementptr inbounds %"struct.ada::url_components", ptr %7, i32 0, i32 7
  %url_components_buffer_21 = getelementptr inbounds %"class.node::url::BindingData", ptr %this1, i32 0, i32 1
  call void @_ZN4node17AliasedBufferBaseIjN2v811Uint32ArrayEEixEm(ptr sret(%"class.node::AliasedBufferBase<unsigned int, v8::Uint32Array>::Reference") align 8 %ref.tmp20, ptr noundef nonnull align 8 dereferenceable(56) %url_components_buffer_21, i64 noundef 7)
  %call22 = call noundef nonnull align 8 dereferenceable(16) ptr @_ZN4node17AliasedBufferBaseIjN2v811Uint32ArrayEE9ReferenceaSERKj(ptr noundef nonnull align 8 dereferenceable(16) %ref.tmp20, ptr noundef nonnull align 4 dereferenceable(4) %hash_start)
  %8 = load i8, ptr %type.addr, align 1
  %conv = zext i8 %8 to i32
  store i32 %conv, ptr %ref.tmp23, align 4
  %url_components_buffer_25 = getelementptr inbounds %"class.node::url::BindingData", ptr %this1, i32 0, i32 1
  call void @_ZN4node17AliasedBufferBaseIjN2v811Uint32ArrayEEixEm(ptr sret(%"class.node::AliasedBufferBase<unsigned int, v8::Uint32Array>::Reference") align 8 %ref.tmp24, ptr noundef nonnull align 8 dereferenceable(56) %url_components_buffer_25, i64 noundef 8)
  %call26 = call noundef nonnull align 8 dereferenceable(16) ptr @_ZN4node17AliasedBufferBaseIjN2v811Uint32ArrayEE9ReferenceaSERKj(ptr noundef nonnull align 8 dereferenceable(16) %ref.tmp24, ptr noundef nonnull align 4 dereferenceable(4) %ref.tmp23)
  ret void
}