; Function Attrs: mustprogress nofree norecurse nosync nounwind willreturn memory(write, argmem: readwrite, inaccessiblemem: none) uwtable
define dso_local void @_ZN4node3url11BindingData16UpdateComponentsERKN3ada14url_componentsENS2_6scheme4typeE(ptr nocapture noundef nonnull readonly align 8 dereferenceable(96) %this, ptr nocapture noundef nonnull readonly align 4 dereferenceable(32) %components, i8 noundef zeroext %type) local_unnamed_addr #6 align 2 {
entry:
  %0 = load i32, ptr %components, align 4
  %buffer_.i.i = getelementptr inbounds i8, ptr %this, i64 72
  %1 = load ptr, ptr %buffer_.i.i, align 8
  store i32 %0, ptr %1, align 4
  %username_end = getelementptr inbounds i8, ptr %components, i64 4
  %2 = load i32, ptr %username_end, align 4
  %3 = load ptr, ptr %buffer_.i.i, align 8
  %arrayidx.i.i11 = getelementptr inbounds i8, ptr %3, i64 4
  store i32 %2, ptr %arrayidx.i.i11, align 4
  %host_start = getelementptr inbounds i8, ptr %components, i64 8
  %4 = load i32, ptr %host_start, align 4
  %5 = load ptr, ptr %buffer_.i.i, align 8
  %arrayidx.i.i15 = getelementptr inbounds i8, ptr %5, i64 8
  store i32 %4, ptr %arrayidx.i.i15, align 4
  %host_end = getelementptr inbounds i8, ptr %components, i64 12
  %6 = load i32, ptr %host_end, align 4
  %7 = load ptr, ptr %buffer_.i.i, align 8
  %arrayidx.i.i19 = getelementptr inbounds i8, ptr %7, i64 12
  store i32 %6, ptr %arrayidx.i.i19, align 4
  %port = getelementptr inbounds i8, ptr %components, i64 16
  %8 = load i32, ptr %port, align 4
  %9 = load ptr, ptr %buffer_.i.i, align 8
  %arrayidx.i.i23 = getelementptr inbounds i8, ptr %9, i64 16
  store i32 %8, ptr %arrayidx.i.i23, align 4
  %pathname_start = getelementptr inbounds i8, ptr %components, i64 20
  %10 = load i32, ptr %pathname_start, align 4
  %11 = load ptr, ptr %buffer_.i.i, align 8
  %arrayidx.i.i27 = getelementptr inbounds i8, ptr %11, i64 20
  store i32 %10, ptr %arrayidx.i.i27, align 4
  %search_start = getelementptr inbounds i8, ptr %components, i64 24
  %12 = load i32, ptr %search_start, align 4
  %13 = load ptr, ptr %buffer_.i.i, align 8
  %arrayidx.i.i31 = getelementptr inbounds i8, ptr %13, i64 24
  store i32 %12, ptr %arrayidx.i.i31, align 4
  %hash_start = getelementptr inbounds i8, ptr %components, i64 28
  %14 = load i32, ptr %hash_start, align 4
  %15 = load ptr, ptr %buffer_.i.i, align 8
  %arrayidx.i.i35 = getelementptr inbounds i8, ptr %15, i64 28
  store i32 %14, ptr %arrayidx.i.i35, align 4
  %conv = zext i8 %type to i32
  %16 = load ptr, ptr %buffer_.i.i, align 8
  %arrayidx.i.i39 = getelementptr inbounds i8, ptr %16, i64 32
  store i32 %conv, ptr %arrayidx.i.i39, align 4
  ret void
}